; Function Attrs: mustprogress uwtable
define internal fastcc noundef signext i8 @_ZL10_normalizePKN6icu_7511Normalizer2EPKDsiRNS_13UnicodeStringEP10UErrorCode(ptr noundef %n2, ptr noundef %s, i32 noundef %length, ptr noundef nonnull align 8 dereferenceable(64) %normalized, ptr noundef %pErrorCode) unnamed_addr #0 personality ptr @__gxx_personality_v0 {
entry:
  %str = alloca %"class.icu_75::UnicodeString", align 8
  %agg.tmp = alloca %"class.icu_75::ConstChar16Ptr", align 8
  %unnormalized = alloca %"class.icu_75::UnicodeString", align 8
  %agg.tmp9 = alloca %"class.icu_75::ConstChar16Ptr", align 8
  %length.lobit = lshr i32 %length, 31
  %conv = trunc i32 %length.lobit to i8
  store ptr %s, ptr %agg.tmp, align 8
  invoke void @_ZN6icu_7513UnicodeStringC1EaNS_14ConstChar16PtrEi(ptr noundef nonnull align 8 dereferenceable(64) %str, i8 noundef signext %conv, ptr noundef nonnull %agg.tmp, i32 noundef %length)
          to label %invoke.cont unwind label %lpad

invoke.cont:                                      ; preds = %entry
  %0 = load ptr, ptr %agg.tmp, align 8
  call void asm sideeffect "", "rm,~{memory},~{dirflag},~{fpsr},~{flags}"(ptr %0) #4, !srcloc !11
  %vtable = load ptr, ptr %n2, align 8
  %vfn = getelementptr inbounds i8, ptr %vtable, i64 112
  %1 = load ptr, ptr %vfn, align 8
  %call = invoke noundef i32 %1(ptr noundef nonnull align 8 dereferenceable(8) %n2, ptr noundef nonnull align 8 dereferenceable(64) %str, ptr noundef nonnull align 4 dereferenceable(4) %pErrorCode)
          to label %invoke.cont2 unwind label %lpad1

invoke.cont2:                                     ; preds = %invoke.cont
  %2 = load i32, ptr %pErrorCode, align 4
  %cmp.i = icmp slt i32 %2, 1
  br i1 %cmp.i, label %invoke.cont4, label %cleanup27

lpad:                                             ; preds = %entry
  %3 = landingpad { ptr, i32 }
          cleanup
  %4 = load ptr, ptr %agg.tmp, align 8
  call void asm sideeffect "", "rm,~{memory},~{dirflag},~{fpsr},~{flags}"(ptr %4) #4, !srcloc !11
  br label %eh.resume

lpad1:                                            ; preds = %if.then7, %invoke.cont
  %5 = landingpad { ptr, i32 }
          cleanup
  br label %ehcleanup28

invoke.cont4:                                     ; preds = %invoke.cont2
  %fUnion.i.i = getelementptr inbounds i8, ptr %str, i64 8
  %6 = load i16, ptr %fUnion.i.i, align 8
  %cmp.i.i = icmp slt i16 %6, 0
  %7 = ashr i16 %6, 5
  %shr.i.i = sext i16 %7 to i32
  %fLength.i = getelementptr inbounds i8, ptr %str, i64 12
  %8 = load i32, ptr %fLength.i, align 4
  %cond.i = select i1 %cmp.i.i, i32 %8, i32 %shr.i.i
  %cmp6 = icmp slt i32 %call, %cond.i
  br i1 %cmp6, label %if.then7, label %if.end26

if.then7:                                         ; preds = %invoke.cont4
  invoke void @_ZNK6icu_7513UnicodeString13tempSubStringEii(ptr nonnull sret(%"class.icu_75::UnicodeString") align 8 %unnormalized, ptr noundef nonnull align 8 dereferenceable(64) %str, i32 noundef %call, i32 noundef 2147483647)
          to label %invoke.cont8 unwind label %lpad1

invoke.cont8:                                     ; preds = %if.then7
  %9 = load i16, ptr %fUnion.i.i, align 8
  %conv1.i = zext i16 %9 to i32
  %and.i = and i32 %conv1.i, 17
  %tobool.not.i = icmp eq i32 %and.i, 0
  br i1 %tobool.not.i, label %if.else.i, label %_ZNK6icu_7513UnicodeString9getBufferEv.exit

if.else.i:                                        ; preds = %invoke.cont8
  %and5.i = and i32 %conv1.i, 2
  %tobool6.not.i = icmp eq i32 %and5.i, 0
  br i1 %tobool6.not.i, label %if.else9.i, label %if.then7.i

if.then7.i:                                       ; preds = %if.else.i
  %fBuffer.i = getelementptr inbounds i8, ptr %str, i64 10
  br label %_ZNK6icu_7513UnicodeString9getBufferEv.exit

if.else9.i:                                       ; preds = %if.else.i
  %fArray.i = getelementptr inbounds i8, ptr %str, i64 24
  %10 = load ptr, ptr %fArray.i, align 8
  br label %_ZNK6icu_7513UnicodeString9getBufferEv.exit

_ZNK6icu_7513UnicodeString9getBufferEv.exit:      ; preds = %invoke.cont8, %if.then7.i, %if.else9.i
  %retval.0.i = phi ptr [ %fBuffer.i, %if.then7.i ], [ %10, %if.else9.i ], [ null, %invoke.cont8 ]
  store ptr %retval.0.i, ptr %agg.tmp9, align 8
  %call16 = invoke noundef nonnull align 8 dereferenceable(64) ptr @_ZN6icu_7513UnicodeString5setToEaNS_14ConstChar16PtrEi(ptr noundef nonnull align 8 dereferenceable(64) %normalized, i8 noundef signext 0, ptr noundef nonnull %agg.tmp9, i32 noundef %call)
          to label %invoke.cont15 unwind label %lpad14

invoke.cont15:                                    ; preds = %_ZNK6icu_7513UnicodeString9getBufferEv.exit
  %11 = load ptr, ptr %agg.tmp9, align 8
  call void asm sideeffect "", "rm,~{memory},~{dirflag},~{fpsr},~{flags}"(ptr %11) #4, !srcloc !11
  %vtable17 = load ptr, ptr %n2, align 8
  %vfn18 = getelementptr inbounds i8, ptr %vtable17, i64 40
  %12 = load ptr, ptr %vfn18, align 8
  %call20 = invoke noundef nonnull align 8 dereferenceable(64) ptr %12(ptr noundef nonnull align 8 dereferenceable(8) %n2, ptr noundef nonnull align 8 dereferenceable(64) %normalized, ptr noundef nonnull align 8 dereferenceable(64) %unnormalized, ptr noundef nonnull align 4 dereferenceable(4) %pErrorCode)
          to label %invoke.cont19 unwind label %lpad10

invoke.cont19:                                    ; preds = %invoke.cont15
  %13 = load i32, ptr %pErrorCode, align 4
  %cmp.i12 = icmp sgt i32 %13, 0
  call void @_ZN6icu_7513UnicodeStringD1Ev(ptr noundef nonnull align 8 dereferenceable(64) %unnormalized) #4
  br i1 %cmp.i12, label %if.end26, label %cleanup27

lpad10:                                           ; preds = %invoke.cont15
  %14 = landingpad { ptr, i32 }
          cleanup
  br label %ehcleanup

lpad14:                                           ; preds = %_ZNK6icu_7513UnicodeString9getBufferEv.exit
  %15 = landingpad { ptr, i32 }
          cleanup
  %16 = load ptr, ptr %agg.tmp9, align 8
  call void asm sideeffect "", "rm,~{memory},~{dirflag},~{fpsr},~{flags}"(ptr %16) #4, !srcloc !11
  br label %ehcleanup

ehcleanup:                                        ; preds = %lpad14, %lpad10
  %.pn = phi { ptr, i32 } [ %14, %lpad10 ], [ %15, %lpad14 ]
  call void @_ZN6icu_7513UnicodeStringD1Ev(ptr noundef nonnull align 8 dereferenceable(64) %unnormalized) #4
  br label %ehcleanup28

if.end26:                                         ; preds = %invoke.cont19, %invoke.cont4
  br label %cleanup27

cleanup27:                                        ; preds = %invoke.cont2, %invoke.cont19, %if.end26
  %retval.1 = phi i8 [ 0, %if.end26 ], [ 1, %invoke.cont19 ], [ 0, %invoke.cont2 ]
  call void @_ZN6icu_7513UnicodeStringD1Ev(ptr noundef nonnull align 8 dereferenceable(64) %str) #4
  ret i8 %retval.1

ehcleanup28:                                      ; preds = %ehcleanup, %lpad1
  %.pn.pn = phi { ptr, i32 } [ %.pn, %ehcleanup ], [ %5, %lpad1 ]
  call void @_ZN6icu_7513UnicodeStringD1Ev(ptr noundef nonnull align 8 dereferenceable(64) %str) #4
  br label %eh.resume

eh.resume:                                        ; preds = %ehcleanup28, %lpad
  %.pn.pn.pn = phi { ptr, i32 } [ %.pn.pn, %ehcleanup28 ], [ %3, %lpad ]
  resume { ptr, i32 } %.pn.pn.pn
}